target datalayout = "e-m:e-p270:32:32-p271:32:32-p272:64:64-i64:64-i128:128-f80:128-n8:16:32:64-S128"
target triple = "x86_64-pc-linux-gnu"

%struct.saucy = type { i32, ptr, ptr, ptr, ptr, %struct.coloring, %struct.coloring, ptr, ptr, ptr, ptr, ptr, i32, i32, ptr, i32, ptr, ptr, ptr, ptr, ptr, ptr, ptr, i32, i32, ptr, i32, ptr, i32, i32, ptr, ptr, ptr, ptr, ptr, ptr, ptr, ptr, ptr, ptr, i32, ptr, ptr, ptr, i32, ptr, i32, ptr, ptr, ptr, ptr, i32, ptr, ptr, i32, ptr, ptr, ptr, ptr, ptr, ptr, ptr, ptr, ptr, ptr, ptr, ptr, ptr, ptr, ptr, ptr, ptr, ptr, ptr, ptr, ptr, ptr, double, i32, i32, i32, ptr, ptr, ptr, ptr }
%struct.coloring = type { ptr, ptr, ptr, ptr }

; Function Attrs: nounwind uwtable
define internal void @clear_refine(ptr noundef %0) #0 {
  %2 = alloca ptr, align 8
  %3 = alloca i32, align 4
  store ptr %0, ptr %2, align 8
  store i32 0, ptr %3, align 4
  br label %4

4:                                                ; preds = %23, %1
  %5 = load i32, ptr %3, align 4
  %6 = load ptr, ptr %2, align 8
  %7 = getelementptr inbounds %struct.saucy, ptr %6, i32 0, i32 12
  %8 = load i32, ptr %7, align 8
  %9 = icmp slt i32 %5, %8
  br i1 %9, label %10, label %26

10:                                               ; preds = %4
  %11 = load ptr, ptr %2, align 8
  %12 = getelementptr inbounds %struct.saucy, ptr %11, i32 0, i32 9
  %13 = load ptr, ptr %12, align 8
  %14 = load ptr, ptr %2, align 8
  %15 = getelementptr inbounds %struct.saucy, ptr %14, i32 0, i32 10
  %16 = load ptr, ptr %15, align 8
  %17 = load i32, ptr %3, align 4
  %18 = sext i32 %17 to i64
  %19 = getelementptr inbounds i32, ptr %16, i64 %18
  %20 = load i32, ptr %19, align 4
  %21 = sext i32 %20 to i64
  %22 = getelementptr inbounds i8, ptr %13, i64 %21
  store i8 0, ptr %22, align 1
  br label %23

23:                                               ; preds = %10
  %24 = load i32, ptr %3, align 4
  %25 = add nsw i32 %24, 1
  store i32 %25, ptr %3, align 4
  br label %4, !llvm.loop !117

26:                                               ; preds = %4
  store i32 0, ptr %3, align 4
  br label %27

27:                                               ; preds = %46, %26
  %28 = load i32, ptr %3, align 4
  %29 = load ptr, ptr %2, align 8
  %30 = getelementptr inbounds %struct.saucy, ptr %29, i32 0, i32 13
  %31 = load i32, ptr %30, align 4
  %32 = icmp slt i32 %28, %31
  br i1 %32, label %33, label %49

33:                                               ; preds = %27
  %34 = load ptr, ptr %2, align 8
  %35 = getelementptr inbounds %struct.saucy, ptr %34, i32 0, i32 9
  %36 = load ptr, ptr %35, align 8
  %37 = load ptr, ptr %2, align 8
  %38 = getelementptr inbounds %struct.saucy, ptr %37, i32 0, i32 11
  %39 = load ptr, ptr %38, align 8
  %40 = load i32, ptr %3, align 4
  %41 = sext i32 %40 to i64
  %42 = getelementptr inbounds i32, ptr %39, i64 %41
  %43 = load i32, ptr %42, align 4
  %44 = sext i32 %43 to i64
  %45 = getelementptr inbounds i8, ptr %36, i64 %44
  store i8 0, ptr %45, align 1
  br label %46

46:                                               ; preds = %33
  %47 = load i32, ptr %3, align 4
  %48 = add nsw i32 %47, 1
  store i32 %48, ptr %3, align 4
  br label %27, !llvm.loop !118

49:                                               ; preds = %27
  %50 = load ptr, ptr %2, align 8
  %51 = getelementptr inbounds %struct.saucy, ptr %50, i32 0, i32 13
  store i32 0, ptr %51, align 4
  %52 = load ptr, ptr %2, align 8
  %53 = getelementptr inbounds %struct.saucy, ptr %52, i32 0, i32 12
  store i32 0, ptr %53, align 8
  ret void
}

; Function Attrs: nounwind uwtable
define internal i32 @at_terminal(ptr noundef %0) #0 {
  %2 = alloca ptr, align 8
  store ptr %0, ptr %2, align 8
  %3 = load ptr, ptr %2, align 8
  %4 = getelementptr inbounds %struct.saucy, ptr %3, i32 0, i32 40
  %5 = load i32, ptr %4, align 8
  %6 = load ptr, ptr %2, align 8
  %7 = getelementptr inbounds %struct.saucy, ptr %6, i32 0, i32 0
  %8 = load i32, ptr %7, align 8
  %9 = icmp eq i32 %5, %8
  %10 = zext i1 %9 to i32
  ret i32 %10
}

; Function Attrs: nounwind uwtable
define internal i32 @refine(ptr noundef %0, ptr noundef %1) #0 {
  %3 = alloca i32, align 4
  %4 = alloca ptr, align 8
  %5 = alloca ptr, align 8
  %6 = alloca i32, align 4
  store ptr %0, ptr %4, align 8
  store ptr %1, ptr %5, align 8
  br label %7

7:                                                ; preds = %79, %2
  %8 = load ptr, ptr %4, align 8
  %9 = call i32 @at_terminal(ptr noundef %8)
  %10 = icmp ne i32 %9, 0
  br i1 %10, label %11, label %13

11:                                               ; preds = %7
  %12 = load ptr, ptr %4, align 8
  call void @clear_refine(ptr noundef %12)
  store i32 1, ptr %3, align 4
  br label %82

13:                                               ; preds = %7
  %14 = load ptr, ptr %4, align 8
  %15 = getelementptr inbounds %struct.saucy, ptr %14, i32 0, i32 13
  %16 = load i32, ptr %15, align 4
  %17 = icmp ne i32 %16, 0
  br i1 %17, label %18, label %45

18:                                               ; preds = %13
  %19 = load ptr, ptr %4, align 8
  %20 = getelementptr inbounds %struct.saucy, ptr %19, i32 0, i32 11
  %21 = load ptr, ptr %20, align 8
  %22 = load ptr, ptr %4, align 8
  %23 = getelementptr inbounds %struct.saucy, ptr %22, i32 0, i32 13
  %24 = load i32, ptr %23, align 4
  %25 = add nsw i32 %24, -1
  store i32 %25, ptr %23, align 4
  %26 = sext i32 %25 to i64
  %27 = getelementptr inbounds i32, ptr %21, i64 %26
  %28 = load i32, ptr %27, align 4
  store i32 %28, ptr %6, align 4
  %29 = load ptr, ptr %4, align 8
  %30 = getelementptr inbounds %struct.saucy, ptr %29, i32 0, i32 9
  %31 = load ptr, ptr %30, align 8
  %32 = load i32, ptr %6, align 4
  %33 = sext i32 %32 to i64
  %34 = getelementptr inbounds i8, ptr %31, i64 %33
  store i8 0, ptr %34, align 1
  %35 = load ptr, ptr %4, align 8
  %36 = getelementptr inbounds %struct.saucy, ptr %35, i32 0, i32 57
  %37 = load ptr, ptr %36, align 8
  %38 = load ptr, ptr %4, align 8
  %39 = load ptr, ptr %5, align 8
  %40 = load i32, ptr %6, align 4
  %41 = call i32 %37(ptr noundef %38, ptr noundef %39, i32 noundef %40)
  %42 = icmp ne i32 %41, 0
  br i1 %42, label %44, label %43

43:                                               ; preds = %18
  br label %80

44:                                               ; preds = %18
  br label %79

45:                                               ; preds = %13
  %46 = load ptr, ptr %4, align 8
  %47 = getelementptr inbounds %struct.saucy, ptr %46, i32 0, i32 12
  %48 = load i32, ptr %47, align 8
  %49 = icmp ne i32 %48, 0
  br i1 %49, label %50, label %77

50:                                               ; preds = %45
  %51 = load ptr, ptr %4, align 8
  %52 = getelementptr inbounds %struct.saucy, ptr %51, i32 0, i32 10
  %53 = load ptr, ptr %52, align 8
  %54 = load ptr, ptr %4, align 8
  %55 = getelementptr inbounds %struct.saucy, ptr %54, i32 0, i32 12
  %56 = load i32, ptr %55, align 8
  %57 = add nsw i32 %56, -1
  store i32 %57, ptr %55, align 8
  %58 = sext i32 %57 to i64
  %59 = getelementptr inbounds i32, ptr %53, i64 %58
  %60 = load i32, ptr %59, align 4
  store i32 %60, ptr %6, align 4
  %61 = load ptr, ptr %4, align 8
  %62 = getelementptr inbounds %struct.saucy, ptr %61, i32 0, i32 9
  %63 = load ptr, ptr %62, align 8
  %64 = load i32, ptr %6, align 4
  %65 = sext i32 %64 to i64
  %66 = getelementptr inbounds i8, ptr %63, i64 %65
  store i8 0, ptr %66, align 1
  %67 = load ptr, ptr %4, align 8
  %68 = getelementptr inbounds %struct.saucy, ptr %67, i32 0, i32 58
  %69 = load ptr, ptr %68, align 8
  %70 = load ptr, ptr %4, align 8
  %71 = load ptr, ptr %5, align 8
  %72 = load i32, ptr %6, align 4
  %73 = call i32 %69(ptr noundef %70, ptr noundef %71, i32 noundef %72)
  %74 = icmp ne i32 %73, 0
  br i1 %74, label %76, label %75

75:                                               ; preds = %50
  br label %80

76:                                               ; preds = %50
  br label %78

77:                                               ; preds = %45
  store i32 1, ptr %3, align 4
  br label %82

78:                                               ; preds = %76
  br label %79

79:                                               ; preds = %78, %44
  br label %7

80:                                               ; preds = %75, %43
  %81 = load ptr, ptr %4, align 8
  call void @clear_refine(ptr noundef %81)
  store i32 0, ptr %3, align 4
  br label %82

82:                                               ; preds = %80, %77, %11
  %83 = load i32, ptr %3, align 4
  ret i32 %83
}