; Function Attrs: nounwind uwtable
define internal fastcc range(i32 0, 2) i32 @refine(ptr noundef %0, ptr noundef %1) unnamed_addr #0 {
  %3 = getelementptr i8, ptr %0, i64 344
  %.val37 = load i32, ptr %0, align 8
  %.val2738 = load i32, ptr %3, align 8
  %.not39 = icmp eq i32 %.val2738, %.val37
  br i1 %.not39, label %._crit_edge, label %.lr.ph

.lr.ph:                                           ; preds = %2
  %4 = getelementptr inbounds nuw i8, ptr %0, i64 148
  %5 = getelementptr inbounds nuw i8, ptr %0, i64 136
  %6 = getelementptr inbounds nuw i8, ptr %0, i64 120
  %7 = getelementptr inbounds nuw i8, ptr %0, i64 480
  %8 = getelementptr inbounds nuw i8, ptr %0, i64 144
  %9 = getelementptr inbounds nuw i8, ptr %0, i64 128
  %10 = getelementptr inbounds nuw i8, ptr %0, i64 488
  br label %41

._crit_edge:                                      ; preds = %67, %2
  %11 = getelementptr inbounds nuw i8, ptr %0, i64 144
  %12 = load i32, ptr %11, align 8
  %13 = icmp sgt i32 %12, 0
  br i1 %13, label %.lr.ph.i, label %.preheader.i

.lr.ph.i:                                         ; preds = %._crit_edge
  %14 = getelementptr inbounds nuw i8, ptr %0, i64 120
  %15 = getelementptr inbounds nuw i8, ptr %0, i64 128
  br label %21

.preheader.i:                                     ; preds = %21, %._crit_edge
  %16 = getelementptr inbounds nuw i8, ptr %0, i64 148
  %17 = load i32, ptr %16, align 4
  %18 = icmp sgt i32 %17, 0
  br i1 %18, label %.lr.ph16.i, label %clear_refine.exit

.lr.ph16.i:                                       ; preds = %.preheader.i
  %19 = getelementptr inbounds nuw i8, ptr %0, i64 120
  %20 = getelementptr inbounds nuw i8, ptr %0, i64 136
  br label %31

21:                                               ; preds = %21, %.lr.ph.i
  %indvars.iv.i = phi i64 [ 0, %.lr.ph.i ], [ %indvars.iv.next.i, %21 ]
  %22 = load ptr, ptr %14, align 8
  %23 = load ptr, ptr %15, align 8
  %24 = getelementptr inbounds nuw i32, ptr %23, i64 %indvars.iv.i
  %25 = load i32, ptr %24, align 4
  %26 = sext i32 %25 to i64
  %27 = getelementptr inbounds i8, ptr %22, i64 %26
  store i8 0, ptr %27, align 1
  %indvars.iv.next.i = add nuw nsw i64 %indvars.iv.i, 1
  %28 = load i32, ptr %11, align 8
  %29 = sext i32 %28 to i64
  %30 = icmp slt i64 %indvars.iv.next.i, %29
  br i1 %30, label %21, label %.preheader.i, !llvm.loop !27

31:                                               ; preds = %31, %.lr.ph16.i
  %indvars.iv18.i = phi i64 [ 0, %.lr.ph16.i ], [ %indvars.iv.next19.i, %31 ]
  %32 = load ptr, ptr %19, align 8
  %33 = load ptr, ptr %20, align 8
  %34 = getelementptr inbounds nuw i32, ptr %33, i64 %indvars.iv18.i
  %35 = load i32, ptr %34, align 4
  %36 = sext i32 %35 to i64
  %37 = getelementptr inbounds i8, ptr %32, i64 %36
  store i8 0, ptr %37, align 1
  %indvars.iv.next19.i = add nuw nsw i64 %indvars.iv18.i, 1
  %38 = load i32, ptr %16, align 4
  %39 = sext i32 %38 to i64
  %40 = icmp slt i64 %indvars.iv.next19.i, %39
  br i1 %40, label %31, label %clear_refine.exit, !llvm.loop !28

clear_refine.exit:                                ; preds = %31, %.preheader.i
  store i32 0, ptr %16, align 4
  store i32 0, ptr %11, align 8
  br label %.loopexit

41:                                               ; preds = %.lr.ph, %67
  %42 = load i32, ptr %4, align 4
  %.not23 = icmp eq i32 %42, 0
  br i1 %.not23, label %54, label %43

43:                                               ; preds = %41
  %44 = load ptr, ptr %5, align 8
  %45 = add nsw i32 %42, -1
  store i32 %45, ptr %4, align 4
  %46 = sext i32 %45 to i64
  %47 = getelementptr inbounds i32, ptr %44, i64 %46
  %48 = load i32, ptr %47, align 4
  %49 = load ptr, ptr %6, align 8
  %50 = sext i32 %48 to i64
  %51 = getelementptr inbounds i8, ptr %49, i64 %50
  store i8 0, ptr %51, align 1
  %52 = load ptr, ptr %7, align 8
  %53 = tail call i32 %52(ptr noundef nonnull %0, ptr noundef %1, i32 noundef %48) #24
  %.not26 = icmp eq i32 %53, 0
  br i1 %.not26, label %68, label %67

54:                                               ; preds = %41
  %55 = load i32, ptr %8, align 8
  %.not24 = icmp eq i32 %55, 0
  br i1 %.not24, label %.loopexit, label %56

56:                                               ; preds = %54
  %57 = load ptr, ptr %9, align 8
  %58 = add nsw i32 %55, -1
  store i32 %58, ptr %8, align 8
  %59 = sext i32 %58 to i64
  %60 = getelementptr inbounds i32, ptr %57, i64 %59
  %61 = load i32, ptr %60, align 4
  %62 = load ptr, ptr %6, align 8
  %63 = sext i32 %61 to i64
  %64 = getelementptr inbounds i8, ptr %62, i64 %63
  store i8 0, ptr %64, align 1
  %65 = load ptr, ptr %10, align 8
  %66 = tail call i32 %65(ptr noundef nonnull %0, ptr noundef %1, i32 noundef %61) #24
  %.not25 = icmp eq i32 %66, 0
  br i1 %.not25, label %68, label %67

67:                                               ; preds = %56, %43
  %.val = load i32, ptr %0, align 8
  %.val27 = load i32, ptr %3, align 8
  %.not = icmp eq i32 %.val27, %.val
  br i1 %.not, label %._crit_edge, label %41

68:                                               ; preds = %56, %43
  %69 = load i32, ptr %8, align 8
  %70 = icmp sgt i32 %69, 0
  br i1 %70, label %.lr.ph.i32, label %.preheader.i28

.preheader.i28:                                   ; preds = %.lr.ph.i32, %68
  %71 = load i32, ptr %4, align 4
  %72 = icmp sgt i32 %71, 0
  br i1 %72, label %.lr.ph16.i29, label %clear_refine.exit35

.lr.ph.i32:                                       ; preds = %68, %.lr.ph.i32
  %indvars.iv.i33 = phi i64 [ %indvars.iv.next.i34, %.lr.ph.i32 ], [ 0, %68 ]
  %73 = load ptr, ptr %6, align 8
  %74 = load ptr, ptr %9, align 8
  %75 = getelementptr inbounds nuw i32, ptr %74, i64 %indvars.iv.i33
  %76 = load i32, ptr %75, align 4
  %77 = sext i32 %76 to i64
  %78 = getelementptr inbounds i8, ptr %73, i64 %77
  store i8 0, ptr %78, align 1
  %indvars.iv.next.i34 = add nuw nsw i64 %indvars.iv.i33, 1
  %79 = load i32, ptr %8, align 8
  %80 = sext i32 %79 to i64
  %81 = icmp slt i64 %indvars.iv.next.i34, %80
  br i1 %81, label %.lr.ph.i32, label %.preheader.i28, !llvm.loop !27

.lr.ph16.i29:                                     ; preds = %.preheader.i28, %.lr.ph16.i29
  %indvars.iv18.i30 = phi i64 [ %indvars.iv.next19.i31, %.lr.ph16.i29 ], [ 0, %.preheader.i28 ]
  %82 = load ptr, ptr %6, align 8
  %83 = load ptr, ptr %5, align 8
  %84 = getelementptr inbounds nuw i32, ptr %83, i64 %indvars.iv18.i30
  %85 = load i32, ptr %84, align 4
  %86 = sext i32 %85 to i64
  %87 = getelementptr inbounds i8, ptr %82, i64 %86
  store i8 0, ptr %87, align 1
  %indvars.iv.next19.i31 = add nuw nsw i64 %indvars.iv18.i30, 1
  %88 = load i32, ptr %4, align 4
  %89 = sext i32 %88 to i64
  %90 = icmp slt i64 %indvars.iv.next19.i31, %89
  br i1 %90, label %.lr.ph16.i29, label %clear_refine.exit35, !llvm.loop !28

clear_refine.exit35:                              ; preds = %.lr.ph16.i29, %.preheader.i28
  store i32 0, ptr %4, align 4
  store i32 0, ptr %8, align 8
  br label %.loopexit

.loopexit:                                        ; preds = %54, %clear_refine.exit35, %clear_refine.exit
  %.0 = phi i32 [ 1, %clear_refine.exit ], [ 0, %clear_refine.exit35 ], [ 1, %54 ]
  ret i32 %.0
}